target datalayout = "e-m:e-p270:32:32-p271:32:32-p272:64:64-i64:64-i128:128-f80:128-n8:16:32:64-S128"
target triple = "x86_64-pc-linux-gnu"

%struct.archive_write = type { %struct.archive, i32, i64, i64, ptr, i64, ptr, ptr, ptr, ptr, ptr, i32, i32, ptr, ptr, ptr, ptr, ptr, ptr, ptr, ptr, ptr, ptr, ptr, ptr, ptr, ptr }
%struct.archive = type { i32, i32, ptr, i32, ptr, i32, i32, ptr, %struct.archive_string, ptr, i32, i32, ptr, ptr, i64, i64, i64, i8, i64 }
%struct.archive_string = type { ptr, i64, i64 }
%struct.iso9660 = type { i64, i32, ptr, ptr, %struct.archive_string, i64, i32, %struct.archive_string, %struct.archive_string, ptr, ptr, %struct.anon, %struct.anon.0, %struct.archive_rb_tree, %struct.vdd, %struct.vdd, i32, i32, i32, %struct.archive_string, %struct.archive_string, %struct.archive_string, %struct.archive_string, %struct.archive_string, %struct.archive_string, %struct.archive_string, i32, %struct.anon.1, ptr, i32, [65536 x i8], i64, i32, i64, i64, i64, %struct.anon.2, %struct.iso_option }
%struct.anon = type { ptr, ptr }
%struct.anon.0 = type { ptr, ptr }
%struct.archive_rb_tree = type { ptr, ptr }
%struct.vdd = type { ptr, i32, ptr, i32, i32, i32, i32, i32, i32 }
%struct.anon.1 = type { i8, [64 x i8], i32, ptr, i64, i32, i32, i64, i64, %struct.z_stream_s, i32, i64, i32 }
%struct.z_stream_s = type { ptr, i32, i64, ptr, i32, i64, ptr, ptr, ptr, ptr, ptr, i32, i64, i64 }
%struct.anon.2 = type { %struct.archive_string, ptr, %struct.archive_string, ptr, i8, %struct.archive_string, i8, i8, i16, i16 }
%struct.iso_option = type { i32 }

@.str.48 = private unnamed_addr constant [35 x i8] c"Can't allocate memory for UTF-16BE\00", align 1
@.str.87 = private unnamed_addr constant [3 x i8] zeroinitializer, align 1

; Function Attrs: inlinehint nounwind uwtable
define internal void @archive_be16enc(ptr noundef %0, i16 noundef zeroext %1) #10 {
  %3 = alloca ptr, align 8
  %4 = alloca i16, align 2
  %5 = alloca ptr, align 8
  store ptr %0, ptr %3, align 8, !tbaa !153
  store i16 %1, ptr %4, align 2, !tbaa !296
  call void @llvm.lifetime.start.p0(i64 8, ptr %5) #13
  %6 = load ptr, ptr %3, align 8, !tbaa !153
  store ptr %6, ptr %5, align 8, !tbaa !133
  %7 = load i16, ptr %4, align 2, !tbaa !296
  %8 = zext i16 %7 to i32
  %9 = ashr i32 %8, 8
  %10 = and i32 %9, 255
  %11 = trunc i32 %10 to i8
  %12 = load ptr, ptr %5, align 8, !tbaa !133
  %13 = getelementptr inbounds i8, ptr %12, i64 0
  store i8 %11, ptr %13, align 1, !tbaa !117
  %14 = load i16, ptr %4, align 2, !tbaa !296
  %15 = zext i16 %14 to i32
  %16 = and i32 %15, 255
  %17 = trunc i32 %16 to i8
  %18 = load ptr, ptr %5, align 8, !tbaa !133
  %19 = getelementptr inbounds i8, ptr %18, i64 1
  store i8 %17, ptr %19, align 1, !tbaa !117
  call void @llvm.lifetime.end.p0(i64 8, ptr %5) #13
  ret void
}

; Function Attrs: inlinehint nounwind uwtable
define internal i32 @joliet_allowed_char(i8 noundef zeroext %0, i8 noundef zeroext %1) #10 {
  %3 = alloca i32, align 4
  %4 = alloca i8, align 1
  %5 = alloca i8, align 1
  %6 = alloca i32, align 4
  %7 = alloca i32, align 4
  store i8 %0, ptr %4, align 1, !tbaa !117
  store i8 %1, ptr %5, align 1, !tbaa !117
  call void @llvm.lifetime.start.p0(i64 4, ptr %6) #13
  %8 = load i8, ptr %4, align 1, !tbaa !117
  %9 = zext i8 %8 to i32
  %10 = shl i32 %9, 8
  %11 = load i8, ptr %5, align 1, !tbaa !117
  %12 = zext i8 %11 to i32
  %13 = or i32 %10, %12
  store i32 %13, ptr %6, align 4, !tbaa !11
  %14 = load i32, ptr %6, align 4, !tbaa !11
  %15 = icmp sle i32 %14, 31
  br i1 %15, label %16, label %17

16:                                               ; preds = %2
  store i32 0, ptr %3, align 4
  store i32 1, ptr %7, align 4
  br label %21

17:                                               ; preds = %2
  %18 = load i32, ptr %6, align 4, !tbaa !11
  switch i32 %18, label %20 [
    i32 42, label %19
    i32 47, label %19
    i32 58, label %19
    i32 59, label %19
    i32 63, label %19
    i32 92, label %19
  ]

19:                                               ; preds = %17, %17, %17, %17, %17, %17
  store i32 0, ptr %3, align 4
  store i32 1, ptr %7, align 4
  br label %21

20:                                               ; preds = %17
  store i32 1, ptr %3, align 4
  store i32 1, ptr %7, align 4
  br label %21

21:                                               ; preds = %20, %19, %16
  call void @llvm.lifetime.end.p0(i64 4, ptr %6) #13
  %22 = load i32, ptr %3, align 4
  ret i32 %22
}

; Function Attrs: nounwind uwtable
define internal i32 @set_str_utf16be(ptr noundef %0, ptr noundef %1, ptr noundef %2, i64 noundef %3, i16 noundef zeroext %4, i32 noundef %5) #0 {
  %7 = alloca i32, align 4
  %8 = alloca ptr, align 8
  %9 = alloca ptr, align 8
  %10 = alloca ptr, align 8
  %11 = alloca i64, align 8
  %12 = alloca i16, align 2
  %13 = alloca i32, align 4
  %14 = alloca i64, align 8
  %15 = alloca i64, align 8
  %16 = alloca i32, align 4
  %17 = alloca ptr, align 8
  %18 = alloca i32, align 4
  %19 = alloca ptr, align 8
  store ptr %0, ptr %8, align 8, !tbaa !9
  store ptr %1, ptr %9, align 8, !tbaa !133
  store ptr %2, ptr %10, align 8, !tbaa !133
  store i64 %3, ptr %11, align 8, !tbaa !154
  store i16 %4, ptr %12, align 2, !tbaa !296
  store i32 %5, ptr %13, align 4, !tbaa !11
  call void @llvm.lifetime.start.p0(i64 8, ptr %14) #13
  call void @llvm.lifetime.start.p0(i64 8, ptr %15) #13
  call void @llvm.lifetime.start.p0(i64 4, ptr %16) #13
  %20 = load ptr, ptr %10, align 8, !tbaa !133
  %21 = icmp eq ptr %20, null
  br i1 %21, label %22, label %23

22:                                               ; preds = %6
  store ptr @.str.87, ptr %10, align 8, !tbaa !133
  br label %23

23:                                               ; preds = %22, %6
  %24 = load i64, ptr %11, align 8, !tbaa !154
  %25 = and i64 %24, 1
  %26 = icmp ne i64 %25, 0
  br i1 %26, label %27, label %30

27:                                               ; preds = %23
  store i32 1, ptr %16, align 4, !tbaa !11
  %28 = load i64, ptr %11, align 8, !tbaa !154
  %29 = and i64 %28, -2
  store i64 %29, ptr %11, align 8, !tbaa !154
  br label %31

30:                                               ; preds = %23
  store i32 0, ptr %16, align 4, !tbaa !11
  br label %31

31:                                               ; preds = %30, %27
  %32 = load i32, ptr %13, align 4, !tbaa !11
  %33 = icmp eq i32 %32, 2
  br i1 %33, label %34, label %75

34:                                               ; preds = %31
  call void @llvm.lifetime.start.p0(i64 8, ptr %17) #13
  %35 = load ptr, ptr %8, align 8, !tbaa !9
  %36 = getelementptr inbounds nuw %struct.archive_write, ptr %35, i32 0, i32 15
  %37 = load ptr, ptr %36, align 8, !tbaa !120
  store ptr %37, ptr %17, align 8, !tbaa !22
  %38 = load ptr, ptr %17, align 8, !tbaa !22
  %39 = getelementptr inbounds nuw %struct.iso9660, ptr %38, i32 0, i32 7
  %40 = load ptr, ptr %10, align 8, !tbaa !133
  %41 = load ptr, ptr %10, align 8, !tbaa !133
  %42 = call i64 @strlen(ptr noundef %41) #15
  %43 = load ptr, ptr %17, align 8, !tbaa !22
  %44 = getelementptr inbounds nuw %struct.iso9660, ptr %43, i32 0, i32 9
  %45 = load ptr, ptr %44, align 8, !tbaa !118
  %46 = call i32 @archive_strncpy_l(ptr noundef %39, ptr noundef %40, i64 noundef %42, ptr noundef %45)
  %47 = icmp ne i32 %46, 0
  br i1 %47, label %48, label %55

48:                                               ; preds = %34
  %49 = call ptr @__errno_location() #16
  %50 = load i32, ptr %49, align 4, !tbaa !11
  %51 = icmp eq i32 %50, 12
  br i1 %51, label %52, label %55

52:                                               ; preds = %48
  %53 = load ptr, ptr %8, align 8, !tbaa !9
  %54 = getelementptr inbounds nuw %struct.archive_write, ptr %53, i32 0, i32 0
  call void (ptr, i32, ptr, ...) @archive_set_error(ptr noundef %54, i32 noundef 12, ptr noundef @.str.48)
  store i32 -30, ptr %7, align 4
  store i32 1, ptr %18, align 4
  br label %72

55:                                               ; preds = %48, %34
  %56 = load ptr, ptr %17, align 8, !tbaa !22
  %57 = getelementptr inbounds nuw %struct.iso9660, ptr %56, i32 0, i32 7
  %58 = getelementptr inbounds nuw %struct.archive_string, ptr %57, i32 0, i32 1
  %59 = load i64, ptr %58, align 8, !tbaa !59
  store i64 %59, ptr %14, align 8, !tbaa !154
  %60 = load i64, ptr %14, align 8, !tbaa !154
  %61 = load i64, ptr %11, align 8, !tbaa !154
  %62 = icmp ugt i64 %60, %61
  br i1 %62, label %63, label %65

63:                                               ; preds = %55
  %64 = load i64, ptr %11, align 8, !tbaa !154
  store i64 %64, ptr %14, align 8, !tbaa !154
  br label %65

65:                                               ; preds = %63, %55
  %66 = load ptr, ptr %9, align 8, !tbaa !133
  %67 = load ptr, ptr %17, align 8, !tbaa !22
  %68 = getelementptr inbounds nuw %struct.iso9660, ptr %67, i32 0, i32 7
  %69 = getelementptr inbounds nuw %struct.archive_string, ptr %68, i32 0, i32 0
  %70 = load ptr, ptr %69, align 8, !tbaa !58
  %71 = load i64, ptr %14, align 8, !tbaa !154
  call void @llvm.memcpy.p0.p0.i64(ptr align 1 %66, ptr align 1 %70, i64 %71, i1 false)
  store i32 0, ptr %18, align 4
  br label %72

72:                                               ; preds = %65, %52
  call void @llvm.lifetime.end.p0(i64 8, ptr %17) #13
  %73 = load i32, ptr %18, align 4
  switch i32 %73, label %137 [
    i32 0, label %74
  ]

74:                                               ; preds = %72
  br label %95

75:                                               ; preds = %31
  call void @llvm.lifetime.start.p0(i64 8, ptr %19) #13
  %76 = load ptr, ptr %10, align 8, !tbaa !133
  store ptr %76, ptr %19, align 8, !tbaa !438
  store i64 0, ptr %14, align 8, !tbaa !154
  br label %77

77:                                               ; preds = %82, %75
  %78 = load ptr, ptr %19, align 8, !tbaa !438
  %79 = getelementptr inbounds nuw i16, ptr %78, i32 1
  store ptr %79, ptr %19, align 8, !tbaa !438
  %80 = load i16, ptr %78, align 2, !tbaa !296
  %81 = icmp ne i16 %80, 0
  br i1 %81, label %82, label %85

82:                                               ; preds = %77
  %83 = load i64, ptr %14, align 8, !tbaa !154
  %84 = add i64 %83, 2
  store i64 %84, ptr %14, align 8, !tbaa !154
  br label %77, !llvm.loop !440

85:                                               ; preds = %77
  %86 = load i64, ptr %14, align 8, !tbaa !154
  %87 = load i64, ptr %11, align 8, !tbaa !154
  %88 = icmp ugt i64 %86, %87
  br i1 %88, label %89, label %91

89:                                               ; preds = %85
  %90 = load i64, ptr %11, align 8, !tbaa !154
  store i64 %90, ptr %14, align 8, !tbaa !154
  br label %91

91:                                               ; preds = %89, %85
  %92 = load ptr, ptr %9, align 8, !tbaa !133
  %93 = load ptr, ptr %10, align 8, !tbaa !133
  %94 = load i64, ptr %14, align 8, !tbaa !154
  call void @llvm.memcpy.p0.p0.i64(ptr align 1 %92, ptr align 1 %93, i64 %94, i1 false)
  call void @llvm.lifetime.end.p0(i64 8, ptr %19) #13
  br label %95

95:                                               ; preds = %91, %74
  store i64 0, ptr %15, align 8, !tbaa !154
  br label %96

96:                                               ; preds = %112, %95
  %97 = load i64, ptr %15, align 8, !tbaa !154
  %98 = load i64, ptr %14, align 8, !tbaa !154
  %99 = icmp ult i64 %97, %98
  br i1 %99, label %100, label %117

100:                                              ; preds = %96
  %101 = load ptr, ptr %9, align 8, !tbaa !133
  %102 = getelementptr inbounds i8, ptr %101, i64 0
  %103 = load i8, ptr %102, align 1, !tbaa !117
  %104 = load ptr, ptr %9, align 8, !tbaa !133
  %105 = getelementptr inbounds i8, ptr %104, i64 1
  %106 = load i8, ptr %105, align 1, !tbaa !117
  %107 = call i32 @joliet_allowed_char(i8 noundef zeroext %103, i8 noundef zeroext %106)
  %108 = icmp ne i32 %107, 0
  br i1 %108, label %111, label %109

109:                                              ; preds = %100
  %110 = load ptr, ptr %9, align 8, !tbaa !133
  call void @archive_be16enc(ptr noundef %110, i16 noundef zeroext 95)
  br label %111

111:                                              ; preds = %109, %100
  br label %112

112:                                              ; preds = %111
  %113 = load i64, ptr %15, align 8, !tbaa !154
  %114 = add i64 %113, 2
  store i64 %114, ptr %15, align 8, !tbaa !154
  %115 = load ptr, ptr %9, align 8, !tbaa !133
  %116 = getelementptr inbounds i8, ptr %115, i64 2
  store ptr %116, ptr %9, align 8, !tbaa !133
  br label %96, !llvm.loop !441

117:                                              ; preds = %96
  %118 = load i64, ptr %14, align 8, !tbaa !154
  %119 = load i64, ptr %11, align 8, !tbaa !154
  %120 = sub i64 %119, %118
  store i64 %120, ptr %11, align 8, !tbaa !154
  br label %121

121:                                              ; preds = %124, %117
  %122 = load i64, ptr %11, align 8, !tbaa !154
  %123 = icmp ugt i64 %122, 0
  br i1 %123, label %124, label %131

124:                                              ; preds = %121
  %125 = load ptr, ptr %9, align 8, !tbaa !133
  %126 = load i16, ptr %12, align 2, !tbaa !296
  call void @archive_be16enc(ptr noundef %125, i16 noundef zeroext %126)
  %127 = load ptr, ptr %9, align 8, !tbaa !133
  %128 = getelementptr inbounds i8, ptr %127, i64 2
  store ptr %128, ptr %9, align 8, !tbaa !133
  %129 = load i64, ptr %11, align 8, !tbaa !154
  %130 = sub i64 %129, 2
  store i64 %130, ptr %11, align 8, !tbaa !154
  br label %121, !llvm.loop !442

131:                                              ; preds = %121
  %132 = load i32, ptr %16, align 4, !tbaa !11
  %133 = icmp ne i32 %132, 0
  br i1 %133, label %134, label %136

134:                                              ; preds = %131
  %135 = load ptr, ptr %9, align 8, !tbaa !133
  store i8 0, ptr %135, align 1, !tbaa !117
  br label %136

136:                                              ; preds = %134, %131
  store i32 0, ptr %7, align 4
  store i32 1, ptr %18, align 4
  br label %137

137:                                              ; preds = %136, %72
  call void @llvm.lifetime.end.p0(i64 4, ptr %16) #13
  call void @llvm.lifetime.end.p0(i64 8, ptr %15) #13
  call void @llvm.lifetime.end.p0(i64 8, ptr %14) #13
  %138 = load i32, ptr %7, align 4
  ret i32 %138
}